; Function Attrs: mustprogress nounwind uwtable
define hidden void @_ZN4llvh14raw_fd_ostreamD2Ev(ptr nocapture noundef nonnull align 8 dereferenceable(72) %this) unnamed_addr #0 align 2 {
entry:
  %ref.tmp = alloca %"class.std::__cxx11::basic_string", align 8
  %ref.tmp10 = alloca %"class.std::__cxx11::basic_string", align 8
  store ptr getelementptr inbounds ({ [14 x ptr] }, ptr @_ZTVN4llvh14raw_fd_ostreamE, i64 0, i32 0, i64 2), ptr %this, align 8
  %FD = getelementptr inbounds i8, ptr %this, i64 36
  %0 = load i32, ptr %FD, align 4
  %cmp = icmp sgt i32 %0, -1
  br i1 %cmp, label %if.then, label %if.end7

if.then:                                          ; preds = %entry
  %OutBufCur.i = getelementptr inbounds i8, ptr %this, i64 24
  %1 = load ptr, ptr %OutBufCur.i, align 8
  %OutBufStart.i = getelementptr inbounds i8, ptr %this, i64 8
  %2 = load ptr, ptr %OutBufStart.i, align 8
  %cmp.not.i = icmp eq ptr %1, %2
  br i1 %cmp.not.i, label %_ZN4llvh11raw_ostream5flushEv.exit, label %if.then.i

if.then.i:                                        ; preds = %if.then
  %sub.ptr.lhs.cast.i.i = ptrtoint ptr %1 to i64
  %sub.ptr.rhs.cast.i.i = ptrtoint ptr %2 to i64
  %sub.ptr.sub.i.i = sub i64 %sub.ptr.lhs.cast.i.i, %sub.ptr.rhs.cast.i.i
  store ptr %2, ptr %OutBufCur.i, align 8
  %pos.i = getelementptr inbounds i8, ptr %this, i64 64
  %3 = load i64, ptr %pos.i, align 8
  %add.i = add i64 %3, %sub.ptr.sub.i.i
  store i64 %add.i, ptr %pos.i, align 8
  br label %do.body.i

do.body.i:                                        ; preds = %do.cond.i, %if.then.i
  %Size.addr.0.i = phi i64 [ %sub.ptr.sub.i.i, %if.then.i ], [ %Size.addr.1.i, %do.cond.i ]
  %Ptr.addr.0.i = phi ptr [ %2, %if.then.i ], [ %Ptr.addr.1.i, %do.cond.i ]
  %.sroa.speculated.i = tail call i64 @llvm.umin.i64(i64 %Size.addr.0.i, i64 1073741824)
  %4 = load i32, ptr %FD, align 4
  %call2.i = tail call i64 @write(i32 noundef %4, ptr noundef %Ptr.addr.0.i, i64 noundef %.sroa.speculated.i) #26
  %cmp.i = icmp slt i64 %call2.i, 0
  br i1 %cmp.i, label %if.then.i5, label %if.end13.i

if.then.i5:                                       ; preds = %do.body.i
  %call3.i = tail call ptr @__errno_location() #28
  %5 = load i32, ptr %call3.i, align 4
  switch i32 %5, label %if.end.i [
    i32 4, label %do.cond.i
    i32 11, label %do.cond.i
  ]

if.end.i:                                         ; preds = %if.then.i5
  %call12.i = tail call noundef nonnull align 8 dereferenceable(8) ptr @_ZNSt3_V216generic_categoryEv() #28
  %EC2.i.i = getelementptr inbounds i8, ptr %this, i64 48
  store i32 %5, ptr %EC2.i.i, align 8
  %EC.sroa.21.0.EC2.sroa_idx.i.i = getelementptr inbounds i8, ptr %this, i64 56
  store ptr %call12.i, ptr %EC.sroa.21.0.EC2.sroa_idx.i.i, align 8
  br label %_ZN4llvh11raw_ostream5flushEv.exit

if.end13.i:                                       ; preds = %do.body.i
  %add.ptr.i = getelementptr inbounds i8, ptr %Ptr.addr.0.i, i64 %call2.i
  %sub.i = sub i64 %Size.addr.0.i, %call2.i
  br label %do.cond.i

do.cond.i:                                        ; preds = %if.end13.i, %if.then.i5, %if.then.i5
  %Size.addr.1.i = phi i64 [ %Size.addr.0.i, %if.then.i5 ], [ %Size.addr.0.i, %if.then.i5 ], [ %sub.i, %if.end13.i ]
  %Ptr.addr.1.i = phi ptr [ %Ptr.addr.0.i, %if.then.i5 ], [ %Ptr.addr.0.i, %if.then.i5 ], [ %add.ptr.i, %if.end13.i ]
  %cmp14.not.i = icmp eq i64 %Size.addr.1.i, 0
  br i1 %cmp14.not.i, label %_ZN4llvh11raw_ostream5flushEv.exit, label %do.body.i, !llvm.loop !15

_ZN4llvh11raw_ostream5flushEv.exit:               ; preds = %do.cond.i, %if.end.i, %if.then
  %ShouldClose = getelementptr inbounds i8, ptr %this, i64 40
  %6 = load i8, ptr %ShouldClose, align 8
  %7 = and i8 %6, 1
  %tobool.not = icmp eq i8 %7, 0
  br i1 %tobool.not, label %if.end7, label %if.then2

if.then2:                                         ; preds = %_ZN4llvh11raw_ostream5flushEv.exit
  %8 = load i32, ptr %FD, align 4
  %call = tail call { i32, ptr } @_ZN4llvh3sys7Process25SafelyCloseFileDescriptorEi(i32 noundef %8) #26
  %9 = extractvalue { i32, ptr } %call, 0
  %cmp.i.not = icmp eq i32 %9, 0
  br i1 %cmp.i.not, label %if.end7, label %if.then5

if.then5:                                         ; preds = %if.then2
  %10 = extractvalue { i32, ptr } %call, 1
  %EC2.i = getelementptr inbounds i8, ptr %this, i64 48
  store i32 %9, ptr %EC2.i, align 8
  %EC.sroa.21.0.EC2.sroa_idx.i = getelementptr inbounds i8, ptr %this, i64 56
  store ptr %10, ptr %EC.sroa.21.0.EC2.sroa_idx.i, align 8
  br label %if.end7

if.end7:                                          ; preds = %_ZN4llvh11raw_ostream5flushEv.exit, %if.then5, %if.then2, %entry
  %EC.i = getelementptr inbounds i8, ptr %this, i64 48
  %11 = load i32, ptr %EC.i, align 8
  %cmp.i.i.not = icmp eq i32 %11, 0
  br i1 %cmp.i.i.not, label %if.end13, label %if.then9

if.then9:                                         ; preds = %if.end7
  %retval.sroa.21.0.EC.sroa_idx.i = getelementptr inbounds i8, ptr %this, i64 56
  %retval.sroa.21.0.copyload.i = load ptr, ptr %retval.sroa.21.0.EC.sroa_idx.i, align 8
  %vtable.i = load ptr, ptr %retval.sroa.21.0.copyload.i, align 8, !noalias !16
  %vfn.i = getelementptr inbounds i8, ptr %vtable.i, i64 32
  %12 = load ptr, ptr %vfn.i, align 8, !noalias !16
  call void %12(ptr nonnull sret(%"class.std::__cxx11::basic_string") align 8 %ref.tmp10, ptr noundef nonnull align 8 dereferenceable(8) %retval.sroa.21.0.copyload.i, i32 noundef %11) #26
  call void @_ZStplIcSt11char_traitsIcESaIcEENSt7__cxx1112basic_stringIT_T0_T1_EEPKS5_OS8_(ptr nonnull sret(%"class.std::__cxx11::basic_string") align 8 %ref.tmp, ptr noundef nonnull @.str.5, ptr noundef nonnull align 8 dereferenceable(32) %ref.tmp10)
  call void @_ZN4llvh18report_fatal_errorERKNSt7__cxx1112basic_stringIcSt11char_traitsIcESaIcEEEb(ptr noundef nonnull align 8 dereferenceable(32) %ref.tmp, i1 noundef zeroext false) #25
  unreachable

if.end13:                                         ; preds = %if.end7
  store ptr getelementptr inbounds ({ [13 x ptr] }, ptr @_ZTVN4llvh11raw_ostreamE, i64 0, i32 0, i64 2), ptr %this, align 8
  %BufferMode.i.i = getelementptr inbounds i8, ptr %this, i64 32
  %13 = load i32, ptr %BufferMode.i.i, align 8
  %cmp.i.i3 = icmp eq i32 %13, 1
  br i1 %cmp.i.i3, label %if.then.i.i, label %_ZN4llvh17raw_pwrite_streamD2Ev.exit

if.then.i.i:                                      ; preds = %if.end13
  %OutBufStart.i.i = getelementptr inbounds i8, ptr %this, i64 8
  %14 = load ptr, ptr %OutBufStart.i.i, align 8
  %isnull.i.i = icmp eq ptr %14, null
  br i1 %isnull.i.i, label %_ZN4llvh17raw_pwrite_streamD2Ev.exit, label %delete.notnull.i.i

delete.notnull.i.i:                               ; preds = %if.then.i.i
  tail call void @_ZdaPv(ptr noundef nonnull %14) #24
  br label %_ZN4llvh17raw_pwrite_streamD2Ev.exit

_ZN4llvh17raw_pwrite_streamD2Ev.exit:             ; preds = %if.end13, %if.then.i.i, %delete.notnull.i.i
  ret void
}